; Function Attrs: nounwind uwtable
define void @Gia_ManEdgeFromArray(ptr noundef captures(none) %0, ptr noundef readonly captures(none) %1) local_unnamed_addr #0 {
  %3 = getelementptr inbounds nuw i8, ptr %0, i64 352
  %4 = load ptr, ptr %3, align 8, !tbaa !3
  %5 = icmp eq ptr %4, null
  br i1 %5, label %Vec_IntFreeP.exit, label %6

6:                                                ; preds = %2
  %7 = getelementptr inbounds nuw i8, ptr %4, i64 8
  %8 = load ptr, ptr %7, align 8, !tbaa !8
  %.not.i = icmp eq ptr %8, null
  br i1 %.not.i, label %11, label %.thread.i

.thread.i:                                        ; preds = %6
  tail call void @free(ptr noundef nonnull %8) #19
  %9 = load ptr, ptr %3, align 8, !tbaa !3
  %10 = getelementptr inbounds nuw i8, ptr %9, i64 8
  store ptr null, ptr %10, align 8, !tbaa !8
  br label %11

11:                                               ; preds = %.thread.i, %6
  %12 = phi ptr [ %9, %.thread.i ], [ %4, %6 ]
  tail call void @free(ptr noundef nonnull %12) #19
  store ptr null, ptr %3, align 8, !tbaa !3
  br label %Vec_IntFreeP.exit

Vec_IntFreeP.exit:                                ; preds = %2, %11
  %13 = getelementptr inbounds nuw i8, ptr %0, i64 360
  %14 = load ptr, ptr %13, align 8, !tbaa !3
  %15 = icmp eq ptr %14, null
  br i1 %15, label %Vec_IntFreeP.exit34, label %16

16:                                               ; preds = %Vec_IntFreeP.exit
  %17 = getelementptr inbounds nuw i8, ptr %14, i64 8
  %18 = load ptr, ptr %17, align 8, !tbaa !8
  %.not.i32 = icmp eq ptr %18, null
  br i1 %.not.i32, label %21, label %.thread.i33

.thread.i33:                                      ; preds = %16
  tail call void @free(ptr noundef nonnull %18) #19
  %19 = load ptr, ptr %13, align 8, !tbaa !3
  %20 = getelementptr inbounds nuw i8, ptr %19, i64 8
  store ptr null, ptr %20, align 8, !tbaa !8
  br label %21

21:                                               ; preds = %.thread.i33, %16
  %22 = phi ptr [ %19, %.thread.i33 ], [ %14, %16 ]
  tail call void @free(ptr noundef nonnull %22) #19
  store ptr null, ptr %13, align 8, !tbaa !3
  br label %Vec_IntFreeP.exit34

Vec_IntFreeP.exit34:                              ; preds = %Vec_IntFreeP.exit, %21
  %23 = getelementptr i8, ptr %0, i64 24
  %.val = load i32, ptr %23, align 8, !tbaa !12
  %24 = tail call noalias dereferenceable_or_null(16) ptr @malloc(i64 noundef 16) #20
  %25 = add i32 %.val, -1
  %or.cond.i.i = icmp ult i32 %25, 15
  %spec.store.select.i.i = select i1 %or.cond.i.i, i32 16, i32 %.val
  %26 = getelementptr inbounds nuw i8, ptr %24, i64 4
  store i32 %spec.store.select.i.i, ptr %24, align 8, !tbaa !30
  %.not.i.i = icmp eq i32 %spec.store.select.i.i, 0
  br i1 %.not.i.i, label %Vec_IntAlloc.exit.thread.i41, label %Vec_IntAlloc.exit.i

Vec_IntAlloc.exit.i:                              ; preds = %Vec_IntFreeP.exit34
  %27 = sext i32 %spec.store.select.i.i to i64
  %28 = shl nsw i64 %27, 2
  %29 = tail call noalias ptr @malloc(i64 noundef %28) #20
  %30 = getelementptr inbounds nuw i8, ptr %24, i64 8
  store ptr %29, ptr %30, align 8, !tbaa !8
  store i32 %.val, ptr %26, align 4, !tbaa !31
  %.not.i35 = icmp eq ptr %29, null
  br i1 %.not.i35, label %Vec_IntAlloc.exit.i39, label %31

31:                                               ; preds = %Vec_IntAlloc.exit.i
  %32 = sext i32 %.val to i64
  %33 = shl nsw i64 %32, 2
  tail call void @llvm.memset.p0.i64(ptr nonnull align 4 %29, i8 0, i64 %33, i1 false)
  br label %Vec_IntAlloc.exit.i39

Vec_IntAlloc.exit.thread.i41:                     ; preds = %Vec_IntFreeP.exit34
  %34 = getelementptr inbounds nuw i8, ptr %24, i64 8
  store ptr null, ptr %34, align 8, !tbaa !8
  store i32 %.val, ptr %26, align 4, !tbaa !31
  store ptr %24, ptr %3, align 8, !tbaa !32
  %35 = tail call noalias dereferenceable_or_null(16) ptr @malloc(i64 noundef 16) #20
  %36 = getelementptr inbounds nuw i8, ptr %35, i64 4
  store i32 0, ptr %35, align 8, !tbaa !30
  %37 = getelementptr inbounds nuw i8, ptr %35, i64 8
  store ptr null, ptr %37, align 8, !tbaa !8
  store i32 %.val, ptr %36, align 4, !tbaa !31
  br label %Vec_IntStart.exit42

Vec_IntAlloc.exit.i39:                            ; preds = %Vec_IntAlloc.exit.i, %31
  store ptr %24, ptr %3, align 8, !tbaa !32
  %38 = tail call noalias dereferenceable_or_null(16) ptr @malloc(i64 noundef 16) #20
  %39 = getelementptr inbounds nuw i8, ptr %38, i64 4
  store i32 %spec.store.select.i.i, ptr %38, align 8, !tbaa !30
  %40 = tail call noalias ptr @malloc(i64 noundef %28) #20
  %41 = getelementptr inbounds nuw i8, ptr %38, i64 8
  store ptr %40, ptr %41, align 8, !tbaa !8
  store i32 %.val, ptr %39, align 4, !tbaa !31
  %.not.i40 = icmp eq ptr %40, null
  br i1 %.not.i40, label %Vec_IntStart.exit42, label %42

42:                                               ; preds = %Vec_IntAlloc.exit.i39
  %43 = sext i32 %.val to i64
  %44 = shl nsw i64 %43, 2
  tail call void @llvm.memset.p0.i64(ptr nonnull align 4 %40, i8 0, i64 %44, i1 false)
  br label %Vec_IntStart.exit42

Vec_IntStart.exit42:                              ; preds = %Vec_IntAlloc.exit.thread.i41, %Vec_IntAlloc.exit.i39, %42
  %.val.i43 = phi ptr [ null, %Vec_IntAlloc.exit.thread.i41 ], [ null, %Vec_IntAlloc.exit.i39 ], [ %40, %42 ]
  %.val30 = phi ptr [ null, %Vec_IntAlloc.exit.thread.i41 ], [ %29, %Vec_IntAlloc.exit.i39 ], [ %29, %42 ]
  %45 = phi ptr [ %35, %Vec_IntAlloc.exit.thread.i41 ], [ %38, %Vec_IntAlloc.exit.i39 ], [ %38, %42 ]
  store ptr %45, ptr %13, align 8, !tbaa !33
  %46 = getelementptr i8, ptr %1, i64 4
  %.val2746 = load i32, ptr %46, align 4, !tbaa !31
  %47 = icmp sgt i32 %.val2746, 1
  br i1 %47, label %.lr.ph, label %.critedge.thread

.lr.ph:                                           ; preds = %Vec_IntStart.exit42
  %48 = getelementptr i8, ptr %1, i64 8
  %.val28 = load ptr, ptr %48, align 8, !tbaa !8
  %.val27 = load i32, ptr %46, align 4, !tbaa !31
  br label %49

49:                                               ; preds = %.lr.ph, %Gia_ObjEdgeAdd.exit45
  %indvars.iv = phi i64 [ 0, %.lr.ph ], [ %indvars.iv.next, %Gia_ObjEdgeAdd.exit45 ]
  %.048 = phi i32 [ 0, %.lr.ph ], [ %76, %Gia_ObjEdgeAdd.exit45 ]
  %50 = or disjoint i64 %indvars.iv, 1
  %51 = getelementptr inbounds nuw i32, ptr %.val28, i64 %indvars.iv
  %52 = load i32, ptr %51, align 4, !tbaa !34
  %53 = getelementptr inbounds nuw i32, ptr %.val28, i64 %50
  %54 = load i32, ptr %53, align 4, !tbaa !34
  %55 = sext i32 %52 to i64
  %56 = getelementptr inbounds i32, ptr %.val30, i64 %55
  %57 = load i32, ptr %56, align 4, !tbaa !34
  %58 = icmp eq i32 %57, 0
  br i1 %58, label %59, label %60

59:                                               ; preds = %49
  store i32 %54, ptr %56, align 4, !tbaa !34
  br label %Gia_ObjEdgeAdd.exit

60:                                               ; preds = %49
  %61 = getelementptr inbounds i32, ptr %.val.i43, i64 %55
  %62 = load i32, ptr %61, align 4, !tbaa !34
  %63 = icmp eq i32 %62, 0
  br i1 %63, label %64, label %Gia_ObjEdgeAdd.exit

64:                                               ; preds = %60
  store i32 %54, ptr %61, align 4, !tbaa !34
  br label %Gia_ObjEdgeAdd.exit

Gia_ObjEdgeAdd.exit:                              ; preds = %59, %60, %64
  %.0.i = phi i32 [ 0, %59 ], [ 0, %64 ], [ 1, %60 ]
  %65 = add nsw i32 %.0.i, %.048
  %66 = sext i32 %54 to i64
  %67 = getelementptr inbounds i32, ptr %.val30, i64 %66
  %68 = load i32, ptr %67, align 4, !tbaa !34
  %69 = icmp eq i32 %68, 0
  br i1 %69, label %70, label %71

70:                                               ; preds = %Gia_ObjEdgeAdd.exit
  store i32 %52, ptr %67, align 4, !tbaa !34
  br label %Gia_ObjEdgeAdd.exit45

71:                                               ; preds = %Gia_ObjEdgeAdd.exit
  %72 = getelementptr inbounds i32, ptr %.val.i43, i64 %66
  %73 = load i32, ptr %72, align 4, !tbaa !34
  %74 = icmp eq i32 %73, 0
  br i1 %74, label %75, label %Gia_ObjEdgeAdd.exit45

75:                                               ; preds = %71
  store i32 %52, ptr %72, align 4, !tbaa !34
  br label %Gia_ObjEdgeAdd.exit45

Gia_ObjEdgeAdd.exit45:                            ; preds = %70, %71, %75
  %.0.i44 = phi i32 [ 0, %70 ], [ 0, %75 ], [ 1, %71 ]
  %76 = add nsw i32 %65, %.0.i44
  %indvars.iv.next = add nuw nsw i64 %indvars.iv, 2
  %77 = trunc i64 %indvars.iv.next to i32
  %78 = or disjoint i32 %77, 1
  %79 = icmp slt i32 %78, %.val27
  br i1 %79, label %49, label %.critedge, !llvm.loop !35

.critedge:                                        ; preds = %Gia_ObjEdgeAdd.exit45
  %.not = icmp eq i32 %76, 0
  br i1 %.not, label %.critedge.thread, label %80

80:                                               ; preds = %.critedge
  %81 = tail call i32 (ptr, ...) @printf(ptr noundef nonnull dereferenceable(1) @.str, i32 noundef %76)
  br label %.critedge.thread

.critedge.thread:                                 ; preds = %Vec_IntStart.exit42, %80, %.critedge
  ret void
}